; ModuleID = '24/821.c'
source_filename = "24/821.c"
target datalayout = "e-m:e-p270:32:32-p271:32:32-p272:64:64-i64:64-f80:128-n8:16:32:64-S128"
target triple = "x86_64-pc-linux-gnu"

@.str = private unnamed_addr constant [3 x i8] c"%c\00", align 1
@.str.1 = private unnamed_addr constant [2 x i8] c"\0A\00", align 1

; Function Attrs: noinline nounwind uwtable
define dso_local i32 @main() #0 {
  %1 = alloca i32, align 4
  %2 = alloca [200 x i8], align 16
  %3 = alloca i8*, align 8
  %4 = alloca i8*, align 8
  %5 = alloca i8*, align 8
  %6 = alloca i8*, align 8
  %7 = alloca i32, align 4
  %8 = alloca i32, align 4
  %9 = alloca i32, align 4
  store i32 0, i32* %1, align 4
  store i32 0, i32* %7, align 4
  store i32 100000, i32* %8, align 4
  %10 = getelementptr inbounds [200 x i8], [200 x i8]* %2, i64 0, i64 0
  %11 = call i32 (i8*, ...) bitcast (i32 (...)* @gets to i32 (i8*, ...)*)(i8* %10)
  %12 = getelementptr inbounds [200 x i8], [200 x i8]* %2, i64 0, i64 0
  store i8* %12, i8** %4, align 8
  store i8* %12, i8** %3, align 8
  br label %13

13:                                               ; preds = %55, %0
  %14 = load i8*, i8** %4, align 8
  %15 = load i8, i8* %14, align 1
  %16 = sext i8 %15 to i32
  %17 = icmp eq i32 %16, 32
  br i1 %17, label %23, label %18

18:                                               ; preds = %13
  %19 = load i8*, i8** %4, align 8
  %20 = load i8, i8* %19, align 1
  %21 = sext i8 %20 to i32
  %22 = icmp eq i32 %21, 0
  br i1 %22, label %23, label %52

23:                                               ; preds = %18, %13
  %24 = load i8*, i8** %4, align 8
  %25 = load i8*, i8** %3, align 8
  %26 = ptrtoint i8* %24 to i64
  %27 = ptrtoint i8* %25 to i64
  %28 = sub i64 %26, %27
  %29 = trunc i64 %28 to i32
  store i32 %29, i32* %9, align 4
  %30 = load i32, i32* %9, align 4
  %31 = load i32, i32* %7, align 4
  %32 = icmp sgt i32 %30, %31
  br i1 %32, label %33, label %36

33:                                               ; preds = %23
  %34 = load i32, i32* %9, align 4
  store i32 %34, i32* %7, align 4
  %35 = load i8*, i8** %3, align 8
  store i8* %35, i8** %5, align 8
  br label %36

36:                                               ; preds = %33, %23
  %37 = load i32, i32* %9, align 4
  %38 = load i32, i32* %8, align 4
  %39 = icmp slt i32 %37, %38
  br i1 %39, label %40, label %43

40:                                               ; preds = %36
  %41 = load i32, i32* %9, align 4
  store i32 %41, i32* %8, align 4
  %42 = load i8*, i8** %3, align 8
  store i8* %42, i8** %6, align 8
  br label %43

43:                                               ; preds = %40, %36
  %44 = load i8*, i8** %4, align 8
  %45 = load i8, i8* %44, align 1
  %46 = sext i8 %45 to i32
  %47 = icmp eq i32 %46, 0
  br i1 %47, label %48, label %49

48:                                               ; preds = %43
  br label %56

49:                                               ; preds = %43
  %50 = load i8*, i8** %4, align 8
  %51 = getelementptr inbounds i8, i8* %50, i64 1
  store i8* %51, i8** %3, align 8
  store i8* %51, i8** %4, align 8
  br label %55

52:                                               ; preds = %18
  %53 = load i8*, i8** %4, align 8
  %54 = getelementptr inbounds i8, i8* %53, i32 1
  store i8* %54, i8** %4, align 8
  br label %55

55:                                               ; preds = %52, %49
  br label %13

56:                                               ; preds = %48
  br label %57

57:                                               ; preds = %74, %56
  %58 = load i8*, i8** %5, align 8
  %59 = load i8, i8* %58, align 1
  %60 = sext i8 %59 to i32
  %61 = icmp ne i32 %60, 32
  br i1 %61, label %62, label %67

62:                                               ; preds = %57
  %63 = load i8*, i8** %5, align 8
  %64 = load i8, i8* %63, align 1
  %65 = sext i8 %64 to i32
  %66 = icmp ne i32 %65, 0
  br label %67

67:                                               ; preds = %62, %57
  %68 = phi i1 [ false, %57 ], [ %66, %62 ]
  br i1 %68, label %69, label %77

69:                                               ; preds = %67
  %70 = load i8*, i8** %5, align 8
  %71 = load i8, i8* %70, align 1
  %72 = sext i8 %71 to i32
  %73 = call i32 (i8*, ...) @printf(i8* getelementptr inbounds ([3 x i8], [3 x i8]* @.str, i64 0, i64 0), i32 %72)
  br label %74

74:                                               ; preds = %69
  %75 = load i8*, i8** %5, align 8
  %76 = getelementptr inbounds i8, i8* %75, i32 1
  store i8* %76, i8** %5, align 8
  br label %57

77:                                               ; preds = %67
  %78 = call i32 (i8*, ...) @printf(i8* getelementptr inbounds ([2 x i8], [2 x i8]* @.str.1, i64 0, i64 0))
  br label %79

79:                                               ; preds = %96, %77
  %80 = load i8*, i8** %6, align 8
  %81 = load i8, i8* %80, align 1
  %82 = sext i8 %81 to i32
  %83 = icmp ne i32 %82, 32
  br i1 %83, label %84, label %89

84:                                               ; preds = %79
  %85 = load i8*, i8** %6, align 8
  %86 = load i8, i8* %85, align 1
  %87 = sext i8 %86 to i32
  %88 = icmp ne i32 %87, 0
  br label %89

89:                                               ; preds = %84, %79
  %90 = phi i1 [ false, %79 ], [ %88, %84 ]
  br i1 %90, label %91, label %99

91:                                               ; preds = %89
  %92 = load i8*, i8** %6, align 8
  %93 = load i8, i8* %92, align 1
  %94 = sext i8 %93 to i32
  %95 = call i32 (i8*, ...) @printf(i8* getelementptr inbounds ([3 x i8], [3 x i8]* @.str, i64 0, i64 0), i32 %94)
  br label %96

96:                                               ; preds = %91
  %97 = load i8*, i8** %6, align 8
  %98 = getelementptr inbounds i8, i8* %97, i32 1
  store i8* %98, i8** %6, align 8
  br label %79

99:                                               ; preds = %89
  %100 = call i32 (i8*, ...) @printf(i8* getelementptr inbounds ([2 x i8], [2 x i8]* @.str.1, i64 0, i64 0))
  ret i32 0
}

declare dso_local i32 @gets(...) #1

declare dso_local i32 @printf(i8*, ...) #1


!llvm.module.flags = !{!0}
!llvm.ident = !{!1}

!0 = !{i32 1, !"wchar_size", i32 4}
!1 = !{!"clang version 10.0.0-4ubuntu1 "}
